; ModuleID = '7/271.c'
source_filename = "7/271.c"
target datalayout = "e-m:e-p270:32:32-p271:32:32-p272:64:64-i64:64-f80:128-n8:16:32:64-S128"
target triple = "x86_64-pc-linux-gnu"

@.str = private unnamed_addr constant [3 x i8] c"%s\00", align 1

; Function Attrs: noinline nounwind uwtable
define dso_local i32 @main() #0 {
  %1 = alloca i32, align 4
  %2 = alloca [100 x i8], align 16
  %3 = alloca [50 x i8], align 16
  %4 = alloca [50 x i8], align 16
  %5 = alloca [3 x [50 x i8]], align 16
  %6 = alloca i32, align 4
  %7 = alloca i32, align 4
  %8 = alloca i32, align 4
  %9 = alloca i32, align 4
  %10 = alloca i32, align 4
  %11 = alloca i32, align 4
  %12 = alloca i32, align 4
  %13 = alloca i32, align 4
  %14 = alloca i32, align 4
  store i32 0, i32* %1, align 4
  store i32 0, i32* %9, align 4
  %15 = getelementptr inbounds [100 x i8], [100 x i8]* %2, i64 0, i64 0
  %16 = call i32 (i8*, ...) bitcast (i32 (...)* @gets to i32 (i8*, ...)*)(i8* %15)
  %17 = getelementptr inbounds [50 x i8], [50 x i8]* %3, i64 0, i64 0
  %18 = call i32 (i8*, ...) bitcast (i32 (...)* @gets to i32 (i8*, ...)*)(i8* %17)
  %19 = getelementptr inbounds [50 x i8], [50 x i8]* %4, i64 0, i64 0
  %20 = call i32 (i8*, ...) bitcast (i32 (...)* @gets to i32 (i8*, ...)*)(i8* %19)
  %21 = getelementptr inbounds [100 x i8], [100 x i8]* %2, i64 0, i64 0
  %22 = call i64 @strlen(i8* %21) #4
  %23 = trunc i64 %22 to i32
  store i32 %23, i32* %12, align 4
  %24 = getelementptr inbounds [50 x i8], [50 x i8]* %3, i64 0, i64 0
  %25 = call i64 @strlen(i8* %24) #4
  %26 = trunc i64 %25 to i32
  store i32 %26, i32* %13, align 4
  %27 = getelementptr inbounds [50 x i8], [50 x i8]* %4, i64 0, i64 0
  %28 = call i64 @strlen(i8* %27) #4
  %29 = trunc i64 %28 to i32
  store i32 %29, i32* %14, align 4
  store i32 0, i32* %6, align 4
  br label %30

30:                                               ; preds = %139, %0
  %31 = load i32, i32* %6, align 4
  %32 = load i32, i32* %12, align 4
  %33 = load i32, i32* %13, align 4
  %34 = sub nsw i32 %32, %33
  %35 = add nsw i32 %34, 1
  %36 = icmp slt i32 %31, %35
  br i1 %36, label %37, label %142

37:                                               ; preds = %30
  store i32 0, i32* %8, align 4
  store i32 0, i32* %7, align 4
  br label %38

38:                                               ; preds = %60, %37
  %39 = load i32, i32* %7, align 4
  %40 = load i32, i32* %13, align 4
  %41 = icmp slt i32 %39, %40
  br i1 %41, label %42, label %63

42:                                               ; preds = %38
  %43 = load i32, i32* %6, align 4
  %44 = load i32, i32* %7, align 4
  %45 = add nsw i32 %43, %44
  %46 = sext i32 %45 to i64
  %47 = getelementptr inbounds [100 x i8], [100 x i8]* %2, i64 0, i64 %46
  %48 = load i8, i8* %47, align 1
  %49 = sext i8 %48 to i32
  %50 = load i32, i32* %7, align 4
  %51 = sext i32 %50 to i64
  %52 = getelementptr inbounds [50 x i8], [50 x i8]* %3, i64 0, i64 %51
  %53 = load i8, i8* %52, align 1
  %54 = sext i8 %53 to i32
  %55 = icmp eq i32 %49, %54
  br i1 %55, label %56, label %59

56:                                               ; preds = %42
  %57 = load i32, i32* %8, align 4
  %58 = add nsw i32 %57, 1
  store i32 %58, i32* %8, align 4
  br label %59

59:                                               ; preds = %56, %42
  br label %60

60:                                               ; preds = %59
  %61 = load i32, i32* %7, align 4
  %62 = add nsw i32 %61, 1
  store i32 %62, i32* %7, align 4
  br label %38

63:                                               ; preds = %38
  %64 = load i32, i32* %8, align 4
  %65 = load i32, i32* %13, align 4
  %66 = icmp eq i32 %64, %65
  br i1 %66, label %67, label %135

67:                                               ; preds = %63
  %68 = load i32, i32* %6, align 4
  store i32 %68, i32* %10, align 4
  store i32 0, i32* %11, align 4
  store i32 0, i32* %6, align 4
  br label %69

69:                                               ; preds = %84, %67
  %70 = load i32, i32* %6, align 4
  %71 = load i32, i32* %10, align 4
  %72 = icmp slt i32 %70, %71
  br i1 %72, label %73, label %87

73:                                               ; preds = %69
  %74 = load i32, i32* %6, align 4
  %75 = sext i32 %74 to i64
  %76 = getelementptr inbounds [100 x i8], [100 x i8]* %2, i64 0, i64 %75
  %77 = load i8, i8* %76, align 1
  %78 = getelementptr inbounds [3 x [50 x i8]], [3 x [50 x i8]]* %5, i64 0, i64 0
  %79 = load i32, i32* %11, align 4
  %80 = sext i32 %79 to i64
  %81 = getelementptr inbounds [50 x i8], [50 x i8]* %78, i64 0, i64 %80
  store i8 %77, i8* %81, align 1
  %82 = load i32, i32* %11, align 4
  %83 = add nsw i32 %82, 1
  store i32 %83, i32* %11, align 4
  br label %84

84:                                               ; preds = %73
  %85 = load i32, i32* %6, align 4
  %86 = add nsw i32 %85, 1
  store i32 %86, i32* %6, align 4
  br label %69

87:                                               ; preds = %69
  %88 = getelementptr inbounds [3 x [50 x i8]], [3 x [50 x i8]]* %5, i64 0, i64 0
  %89 = load i32, i32* %10, align 4
  %90 = sext i32 %89 to i64
  %91 = getelementptr inbounds [50 x i8], [50 x i8]* %88, i64 0, i64 %90
  store i8 0, i8* %91, align 1
  %92 = getelementptr inbounds [3 x [50 x i8]], [3 x [50 x i8]]* %5, i64 0, i64 0
  %93 = getelementptr inbounds [50 x i8], [50 x i8]* %92, i64 0, i64 0
  %94 = call i32 (i8*, ...) @printf(i8* getelementptr inbounds ([3 x i8], [3 x i8]* @.str, i64 0, i64 0), i8* %93)
  %95 = getelementptr inbounds [3 x [50 x i8]], [3 x [50 x i8]]* %5, i64 0, i64 1
  %96 = getelementptr inbounds [50 x i8], [50 x i8]* %95, i64 0, i64 0
  %97 = getelementptr inbounds [50 x i8], [50 x i8]* %4, i64 0, i64 0
  %98 = call i8* @strcpy(i8* %96, i8* %97) #5
  %99 = getelementptr inbounds [3 x [50 x i8]], [3 x [50 x i8]]* %5, i64 0, i64 1
  %100 = getelementptr inbounds [50 x i8], [50 x i8]* %99, i64 0, i64 0
  %101 = call i32 (i8*, ...) @printf(i8* getelementptr inbounds ([3 x i8], [3 x i8]* @.str, i64 0, i64 0), i8* %100)
  store i32 0, i32* %11, align 4
  %102 = load i32, i32* %10, align 4
  %103 = load i32, i32* %13, align 4
  %104 = add nsw i32 %102, %103
  store i32 %104, i32* %6, align 4
  br label %105

105:                                              ; preds = %120, %87
  %106 = load i32, i32* %6, align 4
  %107 = load i32, i32* %12, align 4
  %108 = icmp slt i32 %106, %107
  br i1 %108, label %109, label %123

109:                                              ; preds = %105
  %110 = load i32, i32* %6, align 4
  %111 = sext i32 %110 to i64
  %112 = getelementptr inbounds [100 x i8], [100 x i8]* %2, i64 0, i64 %111
  %113 = load i8, i8* %112, align 1
  %114 = getelementptr inbounds [3 x [50 x i8]], [3 x [50 x i8]]* %5, i64 0, i64 2
  %115 = load i32, i32* %11, align 4
  %116 = sext i32 %115 to i64
  %117 = getelementptr inbounds [50 x i8], [50 x i8]* %114, i64 0, i64 %116
  store i8 %113, i8* %117, align 1
  %118 = load i32, i32* %11, align 4
  %119 = add nsw i32 %118, 1
  store i32 %119, i32* %11, align 4
  br label %120

120:                                              ; preds = %109
  %121 = load i32, i32* %6, align 4
  %122 = add nsw i32 %121, 1
  store i32 %122, i32* %6, align 4
  br label %105

123:                                              ; preds = %105
  %124 = getelementptr inbounds [3 x [50 x i8]], [3 x [50 x i8]]* %5, i64 0, i64 2
  %125 = load i32, i32* %12, align 4
  %126 = load i32, i32* %10, align 4
  %127 = sub nsw i32 %125, %126
  %128 = load i32, i32* %13, align 4
  %129 = sub nsw i32 %127, %128
  %130 = sext i32 %129 to i64
  %131 = getelementptr inbounds [50 x i8], [50 x i8]* %124, i64 0, i64 %130
  store i8 0, i8* %131, align 1
  %132 = getelementptr inbounds [3 x [50 x i8]], [3 x [50 x i8]]* %5, i64 0, i64 2
  %133 = getelementptr inbounds [50 x i8], [50 x i8]* %132, i64 0, i64 0
  %134 = call i32 (i8*, ...) @printf(i8* getelementptr inbounds ([3 x i8], [3 x i8]* @.str, i64 0, i64 0), i8* %133)
  br label %142

135:                                              ; preds = %63
  %136 = load i32, i32* %9, align 4
  %137 = add nsw i32 %136, 1
  store i32 %137, i32* %9, align 4
  br label %138

138:                                              ; preds = %135
  br label %139

139:                                              ; preds = %138
  %140 = load i32, i32* %6, align 4
  %141 = add nsw i32 %140, 1
  store i32 %141, i32* %6, align 4
  br label %30

142:                                              ; preds = %123, %30
  %143 = load i32, i32* %9, align 4
  %144 = load i32, i32* %12, align 4
  %145 = load i32, i32* %13, align 4
  %146 = sub nsw i32 %144, %145
  %147 = add nsw i32 %146, 1
  %148 = icmp eq i32 %143, %147
  br i1 %148, label %149, label %152

149:                                              ; preds = %142
  %150 = getelementptr inbounds [100 x i8], [100 x i8]* %2, i64 0, i64 0
  %151 = call i32 (i8*, ...) @printf(i8* getelementptr inbounds ([3 x i8], [3 x i8]* @.str, i64 0, i64 0), i8* %150)
  br label %152

152:                                              ; preds = %149, %142
  ret i32 0
}

declare dso_local i32 @gets(...) #1

; Function Attrs: nounwind readonly
declare dso_local i64 @strlen(i8*) #2

declare dso_local i32 @printf(i8*, ...) #1

; Function Attrs: nounwind
declare dso_local i8* @strcpy(i8*, i8*) #3


!llvm.module.flags = !{!0}
!llvm.ident = !{!1}

!0 = !{i32 1, !"wchar_size", i32 4}
!1 = !{!"clang version 10.0.0-4ubuntu1 "}
